; Function Attrs: nounwind uwtable
define internal noundef ptr @_on_listen_connect(ptr noundef %0, ptr noundef readonly returned captures(ret: address, provenance) %1) #6 {
  %3 = load i32, ptr %1, align 4
  %4 = tail call i32 @get_log_level() #19
  %5 = icmp sgt i32 %4, 6
  br i1 %5, label %6, label %8

6:                                                ; preds = %2
  %7 = tail call ptr @conmgr_fd_get_name(ptr noundef %0) #19
  tail call void (i32, ptr, ...) @log_var(i32 noundef 7, ptr noundef nonnull @.str.143, ptr noundef nonnull @__func__._on_listen_connect, ptr noundef %7) #19
  br label %8

8:                                                ; preds = %2, %6
  %9 = tail call i32 @pthread_mutex_lock(ptr noundef nonnull @listeners) #19
  %.not = icmp eq i32 %9, 0
  br i1 %.not, label %12, label %10

10:                                               ; preds = %8
  %11 = tail call ptr @__errno_location() #21
  store i32 %9, ptr %11, align 4
  tail call void (ptr, ...) @fatal_abort(ptr noundef nonnull @.str.43, ptr noundef nonnull @__func__._on_listen_connect) #20
  unreachable

12:                                               ; preds = %8
  %13 = load ptr, ptr getelementptr inbounds nuw (i8, ptr @listeners, i64 56), align 8
  %14 = sext i32 %3 to i64
  %15 = getelementptr inbounds ptr, ptr %13, i64 %14
  store ptr %0, ptr %15, align 8
  %16 = tail call i32 @pthread_mutex_unlock(ptr noundef nonnull @listeners) #19
  %.not10 = icmp eq i32 %16, 0
  br i1 %.not10, label %19, label %17

17:                                               ; preds = %12
  %18 = tail call ptr @__errno_location() #21
  store i32 %16, ptr %18, align 4
  tail call void (ptr, ...) @fatal_abort(ptr noundef nonnull @.str.44, ptr noundef nonnull @__func__._on_listen_connect) #20
  unreachable

19:                                               ; preds = %12
  ret ptr %1
}